; ModuleID = '3/173.c'
source_filename = "3/173.c"
target datalayout = "e-m:e-p270:32:32-p271:32:32-p272:64:64-i64:64-f80:128-n8:16:32:64-S128"
target triple = "x86_64-pc-linux-gnu"

@.str = private unnamed_addr constant [7 x i8] c"%d %d\0A\00", align 1
@.str.1 = private unnamed_addr constant [3 x i8] c"%d\00", align 1
@.str.2 = private unnamed_addr constant [5 x i8] c"yes\0A\00", align 1
@.str.3 = private unnamed_addr constant [4 x i8] c"no\0A\00", align 1

; Function Attrs: noinline nounwind uwtable
define dso_local i32 @main(i32 %0, i8** %1) #0 {
  %3 = alloca i32, align 4
  %4 = alloca i32, align 4
  %5 = alloca i8**, align 8
  %6 = alloca i32, align 4
  %7 = alloca i32, align 4
  %8 = alloca [1000 x i32], align 16
  %9 = alloca i32, align 4
  %10 = alloca i32, align 4
  %11 = alloca i32, align 4
  store i32 0, i32* %3, align 4
  store i32 %0, i32* %4, align 4
  store i8** %1, i8*** %5, align 8
  store i32 0, i32* %9, align 4
  %12 = call i32 (i8*, ...) @__isoc99_scanf(i8* getelementptr inbounds ([7 x i8], [7 x i8]* @.str, i64 0, i64 0), i32* %6, i32* %7)
  store i32 0, i32* %10, align 4
  br label %13

13:                                               ; preds = %22, %2
  %14 = load i32, i32* %10, align 4
  %15 = load i32, i32* %6, align 4
  %16 = icmp slt i32 %14, %15
  br i1 %16, label %17, label %25

17:                                               ; preds = %13
  %18 = load i32, i32* %10, align 4
  %19 = sext i32 %18 to i64
  %20 = getelementptr inbounds [1000 x i32], [1000 x i32]* %8, i64 0, i64 %19
  %21 = call i32 (i8*, ...) @__isoc99_scanf(i8* getelementptr inbounds ([3 x i8], [3 x i8]* @.str.1, i64 0, i64 0), i32* %20)
  br label %22

22:                                               ; preds = %17
  %23 = load i32, i32* %10, align 4
  %24 = add nsw i32 %23, 1
  store i32 %24, i32* %10, align 4
  br label %13

25:                                               ; preds = %13
  store i32 0, i32* %10, align 4
  br label %26

26:                                               ; preds = %60, %25
  %27 = load i32, i32* %10, align 4
  %28 = load i32, i32* %6, align 4
  %29 = icmp slt i32 %27, %28
  br i1 %29, label %30, label %63

30:                                               ; preds = %26
  %31 = load i32, i32* %10, align 4
  %32 = add nsw i32 %31, 1
  store i32 %32, i32* %11, align 4
  br label %33

33:                                               ; preds = %52, %30
  %34 = load i32, i32* %11, align 4
  %35 = load i32, i32* %6, align 4
  %36 = icmp slt i32 %34, %35
  br i1 %36, label %37, label %55

37:                                               ; preds = %33
  %38 = load i32, i32* %10, align 4
  %39 = sext i32 %38 to i64
  %40 = getelementptr inbounds [1000 x i32], [1000 x i32]* %8, i64 0, i64 %39
  %41 = load i32, i32* %40, align 4
  %42 = load i32, i32* %11, align 4
  %43 = sext i32 %42 to i64
  %44 = getelementptr inbounds [1000 x i32], [1000 x i32]* %8, i64 0, i64 %43
  %45 = load i32, i32* %44, align 4
  %46 = add nsw i32 %41, %45
  %47 = load i32, i32* %7, align 4
  %48 = icmp eq i32 %46, %47
  br i1 %48, label %49, label %51

49:                                               ; preds = %37
  store i32 1, i32* %9, align 4
  %50 = call i32 (i8*, ...) @printf(i8* getelementptr inbounds ([5 x i8], [5 x i8]* @.str.2, i64 0, i64 0))
  br label %55

51:                                               ; preds = %37
  br label %52

52:                                               ; preds = %51
  %53 = load i32, i32* %11, align 4
  %54 = add nsw i32 %53, 1
  store i32 %54, i32* %11, align 4
  br label %33

55:                                               ; preds = %49, %33
  %56 = load i32, i32* %9, align 4
  %57 = icmp eq i32 %56, 1
  br i1 %57, label %58, label %59

58:                                               ; preds = %55
  br label %63

59:                                               ; preds = %55
  br label %60

60:                                               ; preds = %59
  %61 = load i32, i32* %10, align 4
  %62 = add nsw i32 %61, 1
  store i32 %62, i32* %10, align 4
  br label %26

63:                                               ; preds = %58, %26
  %64 = load i32, i32* %9, align 4
  %65 = icmp eq i32 %64, 0
  br i1 %65, label %66, label %68

66:                                               ; preds = %63
  %67 = call i32 (i8*, ...) @printf(i8* getelementptr inbounds ([4 x i8], [4 x i8]* @.str.3, i64 0, i64 0))
  br label %68

68:                                               ; preds = %66, %63
  ret i32 0
}

declare dso_local i32 @__isoc99_scanf(i8*, ...) #1

declare dso_local i32 @printf(i8*, ...) #1


!llvm.module.flags = !{!0}
!llvm.ident = !{!1}

!0 = !{i32 1, !"wchar_size", i32 4}
!1 = !{!"clang version 10.0.0-4ubuntu1 "}
